; Function Attrs: nounwind uwtable
define internal fastcc range(i32 0, 2) i32 @buf2hexstr_sep(ptr noundef writeonly captures(address_is_null) %0, i64 noundef %1, ptr noundef writeonly captures(address_is_null) %2, ptr noundef readonly captures(none) %3, i64 noundef %4, i8 noundef signext %5) unnamed_addr #0 {
  %7 = icmp ne i8 %5, 0
  %8 = mul i64 %4, 3
  %9 = shl i64 %4, 1
  %10 = or disjoint i64 %9, 1
  %11 = tail call i64 @llvm.umax.i64(i64 %8, i64 1)
  %.0 = select i1 %7, i64 %11, i64 %10
  %.not = icmp eq ptr %2, null
  br i1 %.not, label %13, label %12

12:                                               ; preds = %6
  store i64 %.0, ptr %2, align 8, !tbaa !15
  br label %13

13:                                               ; preds = %12, %6
  %14 = icmp eq ptr %0, null
  br i1 %14, label %48, label %15

15:                                               ; preds = %13
  %16 = icmp ult i64 %1, %.0
  br i1 %16, label %32, label %.preheader

.preheader:                                       ; preds = %15
  %.not38 = icmp eq i64 %4, 0
  br i1 %.not38, label %._crit_edge, label %.lr.ph

.lr.ph:                                           ; preds = %.preheader
  br i1 %7, label %.lr.ph.split.us, label %.lr.ph.split

.lr.ph.split.us:                                  ; preds = %.lr.ph, %.lr.ph.split.us
  %.02837.us = phi i64 [ %31, %.lr.ph.split.us ], [ 0, %.lr.ph ]
  %.03036.us = phi ptr [ %30, %.lr.ph.split.us ], [ %0, %.lr.ph ]
  %17 = getelementptr inbounds nuw i8, ptr %3, i64 %.02837.us
  %18 = load i8, ptr %17, align 1, !tbaa !3
  %19 = zext i8 %18 to i32
  %20 = lshr i32 %19, 4
  %21 = zext nneg i32 %20 to i64
  %22 = getelementptr inbounds nuw i8, ptr @ossl_to_hex.hexdig, i64 %21
  %23 = load i8, ptr %22, align 1, !tbaa !3
  %24 = getelementptr inbounds nuw i8, ptr %.03036.us, i64 1
  store i8 %23, ptr %.03036.us, align 1, !tbaa !3
  %25 = and i32 %19, 15
  %26 = zext nneg i32 %25 to i64
  %27 = getelementptr inbounds nuw i8, ptr @ossl_to_hex.hexdig, i64 %26
  %28 = load i8, ptr %27, align 1, !tbaa !3
  store i8 %28, ptr %24, align 1, !tbaa !3
  %29 = getelementptr inbounds nuw i8, ptr %.03036.us, i64 2
  %30 = getelementptr inbounds nuw i8, ptr %.03036.us, i64 3
  store i8 %5, ptr %29, align 1, !tbaa !3
  %31 = add nuw i64 %.02837.us, 1
  %exitcond41.not = icmp eq i64 %31, %4
  br i1 %exitcond41.not, label %._crit_edge, label %.lr.ph.split.us, !llvm.loop !18

32:                                               ; preds = %15
  tail call void @ERR_new() #16
  tail call void @ERR_set_debug(ptr noundef nonnull @.str, i32 noundef 302, ptr noundef nonnull @__func__.buf2hexstr_sep) #16
  tail call void (i32, i32, ptr, ...) @ERR_set_error(i32 noundef 15, i32 noundef 116, ptr noundef null) #16
  br label %48

.lr.ph.split:                                     ; preds = %.lr.ph, %.lr.ph.split
  %.02837 = phi i64 [ %46, %.lr.ph.split ], [ 0, %.lr.ph ]
  %.03036 = phi ptr [ %45, %.lr.ph.split ], [ %0, %.lr.ph ]
  %33 = getelementptr inbounds nuw i8, ptr %3, i64 %.02837
  %34 = load i8, ptr %33, align 1, !tbaa !3
  %35 = zext i8 %34 to i32
  %36 = lshr i32 %35, 4
  %37 = zext nneg i32 %36 to i64
  %38 = getelementptr inbounds nuw i8, ptr @ossl_to_hex.hexdig, i64 %37
  %39 = load i8, ptr %38, align 1, !tbaa !3
  %40 = getelementptr inbounds nuw i8, ptr %.03036, i64 1
  store i8 %39, ptr %.03036, align 1, !tbaa !3
  %41 = and i32 %35, 15
  %42 = zext nneg i32 %41 to i64
  %43 = getelementptr inbounds nuw i8, ptr @ossl_to_hex.hexdig, i64 %42
  %44 = load i8, ptr %43, align 1, !tbaa !3
  store i8 %44, ptr %40, align 1, !tbaa !3
  %45 = getelementptr inbounds nuw i8, ptr %.03036, i64 2
  %46 = add nuw i64 %.02837, 1
  %exitcond.not = icmp eq i64 %46, %4
  br i1 %exitcond.not, label %._crit_edge, label %.lr.ph.split, !llvm.loop !18

._crit_edge:                                      ; preds = %.lr.ph.split, %.lr.ph.split.us, %.preheader
  %.030.lcssa = phi ptr [ %0, %.preheader ], [ %30, %.lr.ph.split.us ], [ %45, %.lr.ph.split ]
  %47 = icmp ne i64 %4, 0
  %or.cond = and i1 %47, %7
  %spec.select.idx = sext i1 %or.cond to i64
  %spec.select = getelementptr inbounds i8, ptr %.030.lcssa, i64 %spec.select.idx
  store i8 0, ptr %spec.select, align 1, !tbaa !3
  br label %48

48:                                               ; preds = %13, %._crit_edge, %32
  %.029 = phi i32 [ 0, %32 ], [ 1, %._crit_edge ], [ 1, %13 ]
  ret i32 %.029
}